; Function Attrs: mustprogress uwtable
define dso_local void @_ZNK22cmGlobalNinjaGenerator34OrderDependsTargetForTargetPrivateEPK17cmGeneratorTargetRKNSt7__cxx1112basic_stringIcSt11char_traitsIcESaIcEEE(ptr dead_on_unwind noalias writable sret(%"class.std::__cxx11::basic_string") align 8 %0, ptr noundef nonnull align 8 dereferenceable(2808) %1, ptr noundef %2, ptr noundef nonnull align 8 dereferenceable(32) %3) local_unnamed_addr #3 align 2 personality ptr @__gxx_personality_v0 {
  %5 = alloca [2 x %"struct.std::pair.1104"], align 8
  %6 = alloca %"class.std::__cxx11::basic_string", align 8
  %7 = load ptr, ptr %1, align 8
  %8 = getelementptr inbounds i8, ptr %7, i64 584
  %9 = load ptr, ptr %8, align 8
  call void %9(ptr dead_on_unwind nonnull writable sret(%"class.std::__cxx11::basic_string") align 8 %6, ptr noundef nonnull align 8 dereferenceable(2808) %1, ptr noundef %2, ptr noundef nonnull align 8 dereferenceable(32) %3)
  call void @llvm.lifetime.start.p0(i64 48, ptr nonnull %5)
  call void @llvm.experimental.noalias.scope.decl(metadata !427)
  %10 = call { i64, ptr } @_ZNKSt7__cxx1112basic_stringIcSt11char_traitsIcESaIcEEcvSt17basic_string_viewIcS2_EEv(ptr noundef nonnull align 8 dereferenceable(32) %6) #23, !noalias !430
  %11 = extractvalue { i64, ptr } %10, 0
  %12 = extractvalue { i64, ptr } %10, 1
  store i64 %11, ptr %5, align 8, !alias.scope !427, !noalias !433
  %.sroa.2.0..sroa_idx.i.i = getelementptr inbounds i8, ptr %5, i64 8
  store ptr %12, ptr %.sroa.2.0..sroa_idx.i.i, align 8, !alias.scope !427, !noalias !433
  %13 = getelementptr inbounds i8, ptr %5, i64 16
  store ptr %6, ptr %13, align 8, !alias.scope !427, !noalias !433
  %14 = getelementptr inbounds i8, ptr %5, i64 24
  store i64 8, ptr %14, align 8, !alias.scope !434, !noalias !433
  %.sroa.2.0..sroa_idx.i6.i = getelementptr inbounds i8, ptr %5, i64 32
  store ptr @.str.120, ptr %.sroa.2.0..sroa_idx.i6.i, align 8, !alias.scope !434, !noalias !433
  %15 = getelementptr inbounds i8, ptr %5, i64 40
  store ptr null, ptr %15, align 8, !alias.scope !434, !noalias !433
  invoke void @_Z10cmCatViewsSt16initializer_listISt4pairISt17basic_string_viewIcSt11char_traitsIcEEPNSt7__cxx1112basic_stringIcS3_SaIcEEEEE(ptr dead_on_unwind writable sret(%"class.std::__cxx11::basic_string") align 8 %0, ptr nonnull %5, i64 2)
          to label %16 unwind label %17

16:                                               ; preds = %4
  call void @llvm.lifetime.end.p0(i64 48, ptr nonnull %5)
  call void @_ZNSt7__cxx1112basic_stringIcSt11char_traitsIcESaIcEED1Ev(ptr noundef nonnull align 8 dereferenceable(32) %6) #23
  ret void

17:                                               ; preds = %4
  %18 = landingpad { ptr, i32 }
          cleanup
  call void @_ZNSt7__cxx1112basic_stringIcSt11char_traitsIcESaIcEED1Ev(ptr noundef nonnull align 8 dereferenceable(32) %6) #23
  resume { ptr, i32 } %18
}